target datalayout = "e-m:e-p270:32:32-p271:32:32-p272:64:64-i64:64-i128:128-f80:128-n8:16:32:64-S128"
target triple = "x86_64-pc-linux-gnu"

%struct.H5O_layout_t = type { i32, i32, ptr, %union.anon, %struct.H5O_storage_t }
%union.anon = type { %struct.H5O_layout_chunk_t }
%struct.H5O_layout_chunk_t = type { i32, i8, i32, [33 x i32], i32, i32, i64, i64, [33 x i64], [33 x i64], [33 x i64], [33 x i64], %union.anon.0 }
%union.anon.0 = type { %struct.H5O_layout_chunk_earray_t }
%struct.H5O_layout_chunk_earray_t = type { %struct.anon.1, i32, [33 x i32], [33 x i64], [33 x i64] }
%struct.anon.1 = type { i8, i8, i8, i8, i8 }
%struct.H5O_storage_t = type { i32, %union.anon.3 }
%union.anon.3 = type { %struct.H5O_storage_virtual_t }
%struct.H5O_storage_virtual_t = type { %struct.H5HG_t, i64, ptr, i64, [32 x i64], i32, i64, i64, i64, i8 }
%struct.H5HG_t = type { i64, i64 }

@H5O_init_g = external global i8, align 1
@H5_libterm_g = external global i8, align 1
@.str.2 = private unnamed_addr constant [103 x i8] c"generated/home/dtcxzyw/WorkSpace/Projects/compilers/llvm-opt-benchmark/bench/hdf5/hdf5/src/H5Olayout.c\00", align 1
@H5E_OHDR_g = external global i64, align 8
@H5E_CANTFREE_g = external global i64, align 8
@__func__.H5O__layout_delete = private unnamed_addr constant [19 x i8] c"H5O__layout_delete\00", align 1
@.str.45 = private unnamed_addr constant [24 x i8] c"unable to free raw data\00", align 1
@H5E_BADTYPE_g = external global i64, align 8
@.str.46 = private unnamed_addr constant [23 x i8] c"not valid storage type\00", align 1

; Function Attrs: nounwind uwtable
define internal i32 @H5O__layout_delete(ptr noundef %0, ptr noundef %1, ptr noundef %2) #0 {
  %4 = alloca ptr, align 8
  %5 = alloca ptr, align 8
  %6 = alloca ptr, align 8
  %7 = alloca ptr, align 8
  %8 = alloca i32, align 4
  %9 = alloca i8, align 1
  store ptr %0, ptr %4, align 8, !tbaa !3
  store ptr %1, ptr %5, align 8, !tbaa !8
  store ptr %2, ptr %6, align 8, !tbaa !20
  call void @llvm.lifetime.start.p0(i64 8, ptr %7) #10
  %10 = load ptr, ptr %6, align 8, !tbaa !20
  store ptr %10, ptr %7, align 8, !tbaa !18
  call void @llvm.lifetime.start.p0(i64 4, ptr %8) #10
  store i32 0, ptr %8, align 4, !tbaa !10
  call void @llvm.lifetime.start.p0(i64 1, ptr %9) #10
  store i8 0, ptr %9, align 1, !tbaa !21
  %11 = load i8, ptr @H5O_init_g, align 1, !tbaa !21, !range !23, !noundef !24
  %12 = trunc i8 %11 to i1
  br i1 %12, label %17, label %13

13:                                               ; preds = %3
  %14 = load i8, ptr @H5_libterm_g, align 1, !tbaa !21, !range !23, !noundef !24
  %15 = trunc i8 %14 to i1
  %16 = xor i1 %15, true
  br label %17

17:                                               ; preds = %13, %3
  %18 = phi i1 [ true, %3 ], [ %16, %13 ]
  %19 = xor i1 %18, true
  %20 = xor i1 %19, true
  %21 = zext i1 %20 to i32
  %22 = sext i32 %21 to i64
  %23 = call i64 @llvm.expect.i64(i64 %22, i64 1)
  %24 = icmp ne i64 %23, 0
  br i1 %24, label %25, label %130

25:                                               ; preds = %17
  %26 = load ptr, ptr %7, align 8, !tbaa !18
  %27 = getelementptr inbounds nuw %struct.H5O_layout_t, ptr %26, i32 0, i32 0
  %28 = load i32, ptr %27, align 8, !tbaa !31
  switch i32 %28, label %109 [
    i32 0, label %128
    i32 1, label %29
    i32 2, label %55
    i32 3, label %82
    i32 -1, label %108
    i32 4, label %108
  ]

29:                                               ; preds = %25
  %30 = load ptr, ptr %4, align 8, !tbaa !3
  %31 = load ptr, ptr %7, align 8, !tbaa !18
  %32 = getelementptr inbounds nuw %struct.H5O_layout_t, ptr %31, i32 0, i32 4
  %33 = call i32 @H5D__contig_delete(ptr noundef %30, ptr noundef %32)
  %34 = icmp slt i32 %33, 0
  br i1 %34, label %35, label %54

35:                                               ; preds = %29
  br label %36

36:                                               ; preds = %35
  br label %37

37:                                               ; preds = %36
  br label %38

38:                                               ; preds = %37
  %39 = load i64, ptr @H5E_OHDR_g, align 8, !tbaa !14
  %40 = load i64, ptr @H5E_CANTFREE_g, align 8, !tbaa !14
  %41 = call i32 (ptr, ptr, i32, i64, i64, ptr, ...) @H5E_printf_stack(ptr noundef @.str.2, ptr noundef @__func__.H5O__layout_delete, i32 noundef 1153, i64 noundef %39, i64 noundef %40, ptr noundef @.str.45)
  br label %42

42:                                               ; preds = %38
  br label %43

43:                                               ; preds = %42
  store i8 1, ptr %9, align 1, !tbaa !21
  %44 = load i8, ptr %9, align 1, !tbaa !21, !range !23, !noundef !24
  %45 = trunc i8 %44 to i1
  %46 = zext i1 %45 to i8
  store i8 %46, ptr %9, align 1, !tbaa !21
  br label %47

47:                                               ; preds = %43
  br label %48

48:                                               ; preds = %47
  br label %49

49:                                               ; preds = %48
  store i32 -1, ptr %8, align 4, !tbaa !10
  br label %129

50:                                               ; No predecessors!
  br label %51

51:                                               ; preds = %50
  br label %52

52:                                               ; preds = %51
  br label %53

53:                                               ; preds = %52
  br label %54

54:                                               ; preds = %53, %29
  br label %128

55:                                               ; preds = %25
  %56 = load ptr, ptr %4, align 8, !tbaa !3
  %57 = load ptr, ptr %5, align 8, !tbaa !8
  %58 = load ptr, ptr %7, align 8, !tbaa !18
  %59 = getelementptr inbounds nuw %struct.H5O_layout_t, ptr %58, i32 0, i32 4
  %60 = call i32 @H5D__chunk_delete(ptr noundef %56, ptr noundef %57, ptr noundef %59)
  %61 = icmp slt i32 %60, 0
  br i1 %61, label %62, label %81

62:                                               ; preds = %55
  br label %63

63:                                               ; preds = %62
  br label %64

64:                                               ; preds = %63
  br label %65

65:                                               ; preds = %64
  %66 = load i64, ptr @H5E_OHDR_g, align 8, !tbaa !14
  %67 = load i64, ptr @H5E_CANTFREE_g, align 8, !tbaa !14
  %68 = call i32 (ptr, ptr, i32, i64, i64, ptr, ...) @H5E_printf_stack(ptr noundef @.str.2, ptr noundef @__func__.H5O__layout_delete, i32 noundef 1159, i64 noundef %66, i64 noundef %67, ptr noundef @.str.45)
  br label %69

69:                                               ; preds = %65
  br label %70

70:                                               ; preds = %69
  store i8 1, ptr %9, align 1, !tbaa !21
  %71 = load i8, ptr %9, align 1, !tbaa !21, !range !23, !noundef !24
  %72 = trunc i8 %71 to i1
  %73 = zext i1 %72 to i8
  store i8 %73, ptr %9, align 1, !tbaa !21
  br label %74

74:                                               ; preds = %70
  br label %75

75:                                               ; preds = %74
  br label %76

76:                                               ; preds = %75
  store i32 -1, ptr %8, align 4, !tbaa !10
  br label %129

77:                                               ; No predecessors!
  br label %78

78:                                               ; preds = %77
  br label %79

79:                                               ; preds = %78
  br label %80

80:                                               ; preds = %79
  br label %81

81:                                               ; preds = %80, %55
  br label %128

82:                                               ; preds = %25
  %83 = load ptr, ptr %4, align 8, !tbaa !3
  %84 = load ptr, ptr %7, align 8, !tbaa !18
  %85 = getelementptr inbounds nuw %struct.H5O_layout_t, ptr %84, i32 0, i32 4
  %86 = call i32 @H5D__virtual_delete(ptr noundef %83, ptr noundef %85)
  %87 = icmp slt i32 %86, 0
  br i1 %87, label %88, label %107

88:                                               ; preds = %82
  br label %89

89:                                               ; preds = %88
  br label %90

90:                                               ; preds = %89
  br label %91

91:                                               ; preds = %90
  %92 = load i64, ptr @H5E_OHDR_g, align 8, !tbaa !14
  %93 = load i64, ptr @H5E_CANTFREE_g, align 8, !tbaa !14
  %94 = call i32 (ptr, ptr, i32, i64, i64, ptr, ...) @H5E_printf_stack(ptr noundef @.str.2, ptr noundef @__func__.H5O__layout_delete, i32 noundef 1165, i64 noundef %92, i64 noundef %93, ptr noundef @.str.45)
  br label %95

95:                                               ; preds = %91
  br label %96

96:                                               ; preds = %95
  store i8 1, ptr %9, align 1, !tbaa !21
  %97 = load i8, ptr %9, align 1, !tbaa !21, !range !23, !noundef !24
  %98 = trunc i8 %97 to i1
  %99 = zext i1 %98 to i8
  store i8 %99, ptr %9, align 1, !tbaa !21
  br label %100

100:                                              ; preds = %96
  br label %101

101:                                              ; preds = %100
  br label %102

102:                                              ; preds = %101
  store i32 -1, ptr %8, align 4, !tbaa !10
  br label %129

103:                                              ; No predecessors!
  br label %104

104:                                              ; preds = %103
  br label %105

105:                                              ; preds = %104
  br label %106

106:                                              ; preds = %105
  br label %107

107:                                              ; preds = %106, %82
  br label %128

108:                                              ; preds = %25, %25
  br label %109

109:                                              ; preds = %25, %108
  br label %110

110:                                              ; preds = %109
  br label %111

111:                                              ; preds = %110
  br label %112

112:                                              ; preds = %111
  %113 = load i64, ptr @H5E_OHDR_g, align 8, !tbaa !14
  %114 = load i64, ptr @H5E_BADTYPE_g, align 8, !tbaa !14
  %115 = call i32 (ptr, ptr, i32, i64, i64, ptr, ...) @H5E_printf_stack(ptr noundef @.str.2, ptr noundef @__func__.H5O__layout_delete, i32 noundef 1171, i64 noundef %113, i64 noundef %114, ptr noundef @.str.46)
  br label %116

116:                                              ; preds = %112
  br label %117

117:                                              ; preds = %116
  store i8 1, ptr %9, align 1, !tbaa !21
  %118 = load i8, ptr %9, align 1, !tbaa !21, !range !23, !noundef !24
  %119 = trunc i8 %118 to i1
  %120 = zext i1 %119 to i8
  store i8 %120, ptr %9, align 1, !tbaa !21
  br label %121

121:                                              ; preds = %117
  br label %122

122:                                              ; preds = %121
  br label %123

123:                                              ; preds = %122
  store i32 -1, ptr %8, align 4, !tbaa !10
  br label %129

124:                                              ; No predecessors!
  br label %125

125:                                              ; preds = %124
  br label %126

126:                                              ; preds = %125
  br label %127

127:                                              ; preds = %126
  br label %128

128:                                              ; preds = %127, %107, %81, %54, %25
  br label %129

129:                                              ; preds = %128, %123, %102, %76, %49
  br label %130

130:                                              ; preds = %129, %17
  %131 = load i32, ptr %8, align 4, !tbaa !10
  call void @llvm.lifetime.end.p0(i64 1, ptr %9) #10
  call void @llvm.lifetime.end.p0(i64 4, ptr %8) #10
  call void @llvm.lifetime.end.p0(i64 8, ptr %7) #10
  ret i32 %131
}