; Function Attrs: nounwind uwtable
define internal range(i32 -1, 1) i32 @H5O__layout_delete(ptr noundef %0, ptr noundef %1, ptr noundef %2) #0 {
  %4 = load i8, ptr @H5O_init_g, align 1, !tbaa !8, !range !10, !noundef !11
  %5 = trunc nuw i8 %4 to i1
  %6 = load i8, ptr @H5_libterm_g, align 1, !range !10
  %7 = trunc nuw i8 %6 to i1
  %8 = xor i1 %7, true
  %9 = select i1 %5, i1 true, i1 %8
  br i1 %9, label %10, label %40, !prof !12

10:                                               ; preds = %3
  %11 = load i32, ptr %2, align 8, !tbaa !22
  switch i32 %11, label %36 [
    i32 0, label %40
    i32 1, label %12
    i32 2, label %20
    i32 3, label %28
  ]

12:                                               ; preds = %10
  %13 = getelementptr inbounds nuw i8, ptr %2, i64 1912
  %14 = tail call i32 @H5D__contig_delete(ptr noundef %0, ptr noundef nonnull %13) #12
  %15 = icmp slt i32 %14, 0
  br i1 %15, label %16, label %40

16:                                               ; preds = %12
  %17 = load i64, ptr @H5E_OHDR_g, align 8, !tbaa !13
  %18 = load i64, ptr @H5E_CANTFREE_g, align 8, !tbaa !13
  %19 = tail call i32 (ptr, ptr, i32, i64, i64, ptr, ...) @H5E_printf_stack(ptr noundef nonnull @.str.2, ptr noundef nonnull @__func__.H5O__layout_delete, i32 noundef 1153, i64 noundef %17, i64 noundef %18, ptr noundef nonnull @.str.45) #12
  br label %40

20:                                               ; preds = %10
  %21 = getelementptr inbounds nuw i8, ptr %2, i64 1912
  %22 = tail call i32 @H5D__chunk_delete(ptr noundef %0, ptr noundef %1, ptr noundef nonnull %21) #12
  %23 = icmp slt i32 %22, 0
  br i1 %23, label %24, label %40

24:                                               ; preds = %20
  %25 = load i64, ptr @H5E_OHDR_g, align 8, !tbaa !13
  %26 = load i64, ptr @H5E_CANTFREE_g, align 8, !tbaa !13
  %27 = tail call i32 (ptr, ptr, i32, i64, i64, ptr, ...) @H5E_printf_stack(ptr noundef nonnull @.str.2, ptr noundef nonnull @__func__.H5O__layout_delete, i32 noundef 1159, i64 noundef %25, i64 noundef %26, ptr noundef nonnull @.str.45) #12
  br label %40

28:                                               ; preds = %10
  %29 = getelementptr inbounds nuw i8, ptr %2, i64 1912
  %30 = tail call i32 @H5D__virtual_delete(ptr noundef %0, ptr noundef nonnull %29) #12
  %31 = icmp slt i32 %30, 0
  br i1 %31, label %32, label %40

32:                                               ; preds = %28
  %33 = load i64, ptr @H5E_OHDR_g, align 8, !tbaa !13
  %34 = load i64, ptr @H5E_CANTFREE_g, align 8, !tbaa !13
  %35 = tail call i32 (ptr, ptr, i32, i64, i64, ptr, ...) @H5E_printf_stack(ptr noundef nonnull @.str.2, ptr noundef nonnull @__func__.H5O__layout_delete, i32 noundef 1165, i64 noundef %33, i64 noundef %34, ptr noundef nonnull @.str.45) #12
  br label %40

36:                                               ; preds = %10
  %37 = load i64, ptr @H5E_OHDR_g, align 8, !tbaa !13
  %38 = load i64, ptr @H5E_BADTYPE_g, align 8, !tbaa !13
  %39 = tail call i32 (ptr, ptr, i32, i64, i64, ptr, ...) @H5E_printf_stack(ptr noundef nonnull @.str.2, ptr noundef nonnull @__func__.H5O__layout_delete, i32 noundef 1171, i64 noundef %37, i64 noundef %38, ptr noundef nonnull @.str.46) #12
  br label %40

40:                                               ; preds = %16, %24, %32, %36, %28, %20, %12, %10, %3
  %.0 = phi i32 [ -1, %36 ], [ -1, %32 ], [ 0, %28 ], [ -1, %24 ], [ 0, %20 ], [ -1, %16 ], [ 0, %12 ], [ %11, %10 ], [ 0, %3 ]
  ret i32 %.0
}